; Function Attrs: nounwind uwtable
define hidden void @timelib_time_offset_dtor(ptr noundef %0) local_unnamed_addr #1 {
  %2 = getelementptr inbounds i8, ptr %0, i64 16
  %3 = load ptr, ptr %2, align 8
  %.not = icmp eq ptr %3, null
  br i1 %.not, label %5, label %4

4:                                                ; preds = %1
  tail call void @_efree(ptr noundef nonnull %3) #18
  store ptr null, ptr %2, align 8
  br label %5

5:                                                ; preds = %4, %1
  tail call void @_efree(ptr noundef nonnull %0) #18
  ret void
}